; Function Attrs: mustprogress uwtable
define hidden void @_ZN3sls12array_plugin14saturate_storeERN3euf6egraphEPNS1_5enodeE(ptr noundef nonnull align 8 dereferenceable(96) %0, ptr noundef nonnull align 8 dereferenceable(536) %1, ptr noundef %2) local_unnamed_addr #3 align 2 {
  tail call void @_ZN3sls12array_plugin18force_store_axiom1ERN3euf6egraphEPNS1_5enodeE(ptr noundef nonnull align 8 dereferenceable(96) %0, ptr noundef nonnull align 8 dereferenceable(536) %1, ptr noundef %2)
  %4 = getelementptr inbounds nuw i8, ptr %2, i64 64
  %5 = load ptr, ptr %4, align 8, !tbaa !189
  %6 = getelementptr inbounds nuw i8, ptr %5, i64 48
  %7 = load ptr, ptr %6, align 8, !tbaa !113
  %8 = icmp eq ptr %7, null
  br i1 %8, label %._crit_edge, label %_ZNK3euf13enode_parents3endEv.exit

_ZNK3euf13enode_parents3endEv.exit:               ; preds = %3
  %9 = getelementptr inbounds i8, ptr %7, i64 -4
  %10 = load i32, ptr %9, align 4, !tbaa !116
  %11 = zext i32 %10 to i64
  %12 = getelementptr inbounds nuw ptr, ptr %7, i64 %11
  %.not35 = icmp eq i32 %10, 0
  br i1 %.not35, label %._crit_edge, label %.lr.ph

.lr.ph:                                           ; preds = %_ZNK3euf13enode_parents3endEv.exit
  %13 = getelementptr inbounds nuw i8, ptr %0, i64 40
  br label %26

._crit_edge:                                      ; preds = %_ZNK17array_recognizers9is_selectEP4expr.exit.thread, %3, %_ZNK3euf13enode_parents3endEv.exit
  %14 = getelementptr inbounds nuw i8, ptr %2, i64 176
  %15 = load ptr, ptr %14, align 8, !tbaa !129
  %16 = getelementptr inbounds nuw i8, ptr %15, i64 64
  %17 = load ptr, ptr %16, align 8, !tbaa !189
  %18 = getelementptr inbounds nuw i8, ptr %17, i64 48
  %19 = load ptr, ptr %18, align 8, !tbaa !113
  %20 = icmp eq ptr %19, null
  br i1 %20, label %._crit_edge40, label %_ZNK3euf13enode_parents3endEv.exit29

_ZNK3euf13enode_parents3endEv.exit29:             ; preds = %._crit_edge
  %21 = getelementptr inbounds i8, ptr %19, i64 -4
  %22 = load i32, ptr %21, align 4, !tbaa !116
  %23 = zext i32 %22 to i64
  %24 = getelementptr inbounds nuw ptr, ptr %19, i64 %23
  %.not2737 = icmp eq i32 %22, 0
  br i1 %.not2737, label %._crit_edge40, label %.lr.ph39

.lr.ph39:                                         ; preds = %_ZNK3euf13enode_parents3endEv.exit29
  %25 = getelementptr inbounds nuw i8, ptr %0, i64 40
  br label %47

26:                                               ; preds = %.lr.ph, %_ZNK17array_recognizers9is_selectEP4expr.exit.thread
  %.036 = phi ptr [ %7, %.lr.ph ], [ %46, %_ZNK17array_recognizers9is_selectEP4expr.exit.thread ]
  %27 = load ptr, ptr %.036, align 8, !tbaa !129
  %28 = load ptr, ptr %27, align 8, !tbaa !180
  %29 = load i32, ptr %13, align 8, !tbaa !32
  %30 = getelementptr inbounds nuw i8, ptr %28, i64 4
  %31 = load i32, ptr %30, align 4
  %32 = and i32 %31, 65535
  %33 = icmp eq i32 %32, 0
  br i1 %33, label %34, label %_ZNK17array_recognizers9is_selectEP4expr.exit.thread

34:                                               ; preds = %26
  %35 = getelementptr inbounds nuw i8, ptr %28, i64 16
  %36 = load ptr, ptr %35, align 8, !tbaa !175
  %37 = getelementptr inbounds nuw i8, ptr %36, i64 24
  %38 = load ptr, ptr %37, align 8, !tbaa !136
  %.not.i.i.i.i = icmp eq ptr %38, null
  br i1 %.not.i.i.i.i, label %_ZNK17array_recognizers9is_selectEP4expr.exit.thread, label %_ZNK17array_recognizers9is_selectEP4expr.exit

_ZNK17array_recognizers9is_selectEP4expr.exit:    ; preds = %34
  %39 = load i32, ptr %38, align 8, !tbaa !140
  %40 = icmp eq i32 %39, %29
  %41 = getelementptr inbounds nuw i8, ptr %38, i64 4
  %42 = load i32, ptr %41, align 4
  %43 = icmp eq i32 %42, 1
  %44 = select i1 %40, i1 %43, i1 false
  br i1 %44, label %45, label %_ZNK17array_recognizers9is_selectEP4expr.exit.thread

45:                                               ; preds = %_ZNK17array_recognizers9is_selectEP4expr.exit
  tail call void @_ZN3sls12array_plugin23force_store_axiom2_downERN3euf6egraphEPNS1_5enodeES5_(ptr noundef nonnull align 8 dereferenceable(96) %0, ptr noundef nonnull align 8 dereferenceable(536) %1, ptr noundef nonnull %2, ptr noundef nonnull %27)
  br label %_ZNK17array_recognizers9is_selectEP4expr.exit.thread

_ZNK17array_recognizers9is_selectEP4expr.exit.thread: ; preds = %34, %26, %45, %_ZNK17array_recognizers9is_selectEP4expr.exit
  %46 = getelementptr inbounds nuw i8, ptr %.036, i64 8
  %.not = icmp eq ptr %46, %12
  br i1 %.not, label %._crit_edge, label %26

._crit_edge40:                                    ; preds = %_ZNK17array_recognizers9is_selectEP4expr.exit31.thread, %._crit_edge, %_ZNK3euf13enode_parents3endEv.exit29
  ret void

47:                                               ; preds = %.lr.ph39, %_ZNK17array_recognizers9is_selectEP4expr.exit31.thread
  %.02638 = phi ptr [ %19, %.lr.ph39 ], [ %67, %_ZNK17array_recognizers9is_selectEP4expr.exit31.thread ]
  %48 = load ptr, ptr %.02638, align 8, !tbaa !129
  %49 = load ptr, ptr %48, align 8, !tbaa !180
  %50 = load i32, ptr %25, align 8, !tbaa !32
  %51 = getelementptr inbounds nuw i8, ptr %49, i64 4
  %52 = load i32, ptr %51, align 4
  %53 = and i32 %52, 65535
  %54 = icmp eq i32 %53, 0
  br i1 %54, label %55, label %_ZNK17array_recognizers9is_selectEP4expr.exit31.thread

55:                                               ; preds = %47
  %56 = getelementptr inbounds nuw i8, ptr %49, i64 16
  %57 = load ptr, ptr %56, align 8, !tbaa !175
  %58 = getelementptr inbounds nuw i8, ptr %57, i64 24
  %59 = load ptr, ptr %58, align 8, !tbaa !136
  %.not.i.i.i.i30 = icmp eq ptr %59, null
  br i1 %.not.i.i.i.i30, label %_ZNK17array_recognizers9is_selectEP4expr.exit31.thread, label %_ZNK17array_recognizers9is_selectEP4expr.exit31

_ZNK17array_recognizers9is_selectEP4expr.exit31:  ; preds = %55
  %60 = load i32, ptr %59, align 8, !tbaa !140
  %61 = icmp eq i32 %60, %50
  %62 = getelementptr inbounds nuw i8, ptr %59, i64 4
  %63 = load i32, ptr %62, align 4
  %64 = icmp eq i32 %63, 1
  %65 = select i1 %61, i1 %64, i1 false
  br i1 %65, label %66, label %_ZNK17array_recognizers9is_selectEP4expr.exit31.thread

66:                                               ; preds = %_ZNK17array_recognizers9is_selectEP4expr.exit31
  tail call void @_ZN3sls12array_plugin21force_store_axiom2_upERN3euf6egraphEPNS1_5enodeES5_(ptr noundef nonnull align 8 dereferenceable(96) %0, ptr noundef nonnull align 8 dereferenceable(536) %1, ptr noundef nonnull %2, ptr noundef nonnull %48)
  br label %_ZNK17array_recognizers9is_selectEP4expr.exit31.thread

_ZNK17array_recognizers9is_selectEP4expr.exit31.thread: ; preds = %55, %47, %66, %_ZNK17array_recognizers9is_selectEP4expr.exit31
  %67 = getelementptr inbounds nuw i8, ptr %.02638, i64 8
  %.not27 = icmp eq ptr %67, %24
  br i1 %.not27, label %._crit_edge40, label %47
}